; Function Attrs: nounwind uwtable
define internal ptr @member_get(ptr noundef %0, ptr noundef %1, ptr readnone captures(none) %2) #0 {
  %4 = icmp eq ptr %1, null
  br i1 %4, label %5, label %10

5:                                                ; preds = %3
  %6 = load i32, ptr %0, align 8, !tbaa !16
  %7 = icmp slt i32 %6, 0
  br i1 %7, label %_Py_NewRef.exit, label %8

8:                                                ; preds = %5
  %9 = add nuw i32 %6, 1
  store i32 %9, ptr %0, align 8, !tbaa !16
  br label %_Py_NewRef.exit

10:                                               ; preds = %3
  %11 = getelementptr inbounds nuw i8, ptr %0, i64 16
  %12 = load ptr, ptr %11, align 8, !tbaa !10
  %13 = getelementptr i8, ptr %1, i64 8
  %.val5.i = load ptr, ptr %13, align 8, !tbaa !19
  %.not.i.i = icmp eq ptr %.val5.i, %12
  br i1 %.not.i.i, label %28, label %PyObject_TypeCheck.exit.i

PyObject_TypeCheck.exit.i:                        ; preds = %10
  %14 = tail call i32 @PyType_IsSubtype(ptr noundef %.val5.i, ptr noundef %12) #9
  %.not9.i = icmp eq i32 %14, 0
  br i1 %.not9.i, label %15, label %28

15:                                               ; preds = %PyObject_TypeCheck.exit.i
  %16 = load ptr, ptr @PyExc_TypeError, align 8, !tbaa !30
  %17 = getelementptr i8, ptr %0, i64 24
  %.val6.i = load ptr, ptr %17, align 8, !tbaa !17
  %.not.i7.i = icmp eq ptr %.val6.i, null
  br i1 %.not.i7.i, label %descr_check.exit, label %18

18:                                               ; preds = %15
  %19 = getelementptr i8, ptr %.val6.i, i64 8
  %.val.i.i = load ptr, ptr %19, align 8, !tbaa !19
  %20 = getelementptr i8, ptr %.val.i.i, i64 168
  %.val6.i.i = load i64, ptr %20, align 8, !tbaa !20
  %21 = and i64 %.val6.i.i, 268435456
  %.not5.i.i = icmp eq i64 %21, 0
  %spec.select.i.i = select i1 %.not5.i.i, ptr null, ptr %.val6.i
  br label %descr_check.exit

descr_check.exit:                                 ; preds = %15, %18
  %.0.i.i = phi ptr [ null, %15 ], [ %spec.select.i.i, %18 ]
  %22 = load ptr, ptr %11, align 8, !tbaa !10
  %23 = getelementptr inbounds nuw i8, ptr %22, i64 24
  %24 = load ptr, ptr %23, align 8, !tbaa !29
  %.val.i = load ptr, ptr %13, align 8, !tbaa !19
  %25 = getelementptr inbounds nuw i8, ptr %.val.i, i64 24
  %26 = load ptr, ptr %25, align 8, !tbaa !29
  %27 = tail call ptr (ptr, ptr, ...) @PyErr_Format(ptr noundef %16, ptr noundef nonnull @.str.26, ptr noundef %.0.i.i, ptr noundef nonnull @.str.12, ptr noundef %24, ptr noundef %26) #9
  br label %_Py_NewRef.exit

28:                                               ; preds = %PyObject_TypeCheck.exit.i, %10
  %29 = getelementptr inbounds nuw i8, ptr %0, i64 40
  %30 = load ptr, ptr %29, align 8, !tbaa !37
  %31 = getelementptr inbounds nuw i8, ptr %30, i64 24
  %32 = load i32, ptr %31, align 8, !tbaa !39
  %33 = and i32 %32, 2
  %.not = icmp eq i32 %33, 0
  br i1 %.not, label %38, label %34

34:                                               ; preds = %28
  %35 = load ptr, ptr %30, align 8, !tbaa !41
  %36 = tail call i32 (ptr, ptr, ...) @PySys_Audit(ptr noundef nonnull @.str.32, ptr noundef nonnull @.str.33, ptr noundef nonnull %1, ptr noundef %35) #9
  %37 = icmp slt i32 %36, 0
  br i1 %37, label %_Py_NewRef.exit, label %._crit_edge

._crit_edge:                                      ; preds = %34
  %.pre = load ptr, ptr %29, align 8, !tbaa !37
  br label %38

38:                                               ; preds = %._crit_edge, %28
  %39 = phi ptr [ %.pre, %._crit_edge ], [ %30, %28 ]
  %40 = tail call ptr @PyMember_GetOne(ptr noundef nonnull %1, ptr noundef %39) #9
  br label %_Py_NewRef.exit

_Py_NewRef.exit:                                  ; preds = %descr_check.exit, %8, %5, %34, %38
  %.0 = phi ptr [ %40, %38 ], [ null, %descr_check.exit ], [ null, %34 ], [ %0, %5 ], [ %0, %8 ]
  ret ptr %.0
}